target datalayout = "e-m:e-p270:32:32-p271:32:32-p272:64:64-i64:64-i128:128-f80:128-n8:16:32:64-S128"
target triple = "x86_64-pc-linux-gnu"

%struct.MovTextContext = type { ptr, ptr, ptr, ptr, ptr, i32, i32, %struct.StyleBox, %struct.AVBPrint, %struct.HighlightBox, %struct.HilightcolorBox, i8, %struct.StyleBox, i16, ptr, i32, double, i32 }
%struct.AVBPrint = type { ptr, i32, i32, i32, [1 x i8], [1000 x i8] }
%struct.HighlightBox = type { i16, i16 }
%struct.HilightcolorBox = type { i32 }
%struct.StyleBox = type { i16, i16, i8, i16, i8, i32 }

; Function Attrs: nounwind uwtable
define internal zeroext i8 @mov_text_style_to_flag(i8 noundef signext %0) #1 {
  %2 = alloca i8, align 1
  %3 = alloca i8, align 1
  store i8 %0, ptr %2, align 1, !tbaa !63
  call void @llvm.lifetime.start.p0(i64 1, ptr %3) #11
  store i8 0, ptr %3, align 1, !tbaa !63
  %4 = load i8, ptr %2, align 1, !tbaa !63
  %5 = sext i8 %4 to i32
  switch i32 %5, label %9 [
    i32 98, label %6
    i32 105, label %7
    i32 117, label %8
  ]

6:                                                ; preds = %1
  store i8 1, ptr %3, align 1, !tbaa !63
  br label %9

7:                                                ; preds = %1
  store i8 2, ptr %3, align 1, !tbaa !63
  br label %9

8:                                                ; preds = %1
  store i8 4, ptr %3, align 1, !tbaa !63
  br label %9

9:                                                ; preds = %1, %8, %7, %6
  %10 = load i8, ptr %3, align 1, !tbaa !63
  call void @llvm.lifetime.end.p0(i64 1, ptr %3) #11
  ret i8 %10
}

; Function Attrs: nounwind uwtable
define internal void @mov_text_style_cb(ptr noundef %0, i8 noundef signext %1, i32 noundef %2) #1 {
  %4 = alloca ptr, align 8
  %5 = alloca i8, align 1
  %6 = alloca i32, align 4
  %7 = alloca ptr, align 8
  %8 = alloca i8, align 1
  %9 = alloca i32, align 4
  store ptr %0, ptr %4, align 8, !tbaa !29
  store i8 %1, ptr %5, align 1, !tbaa !63
  store i32 %2, ptr %6, align 4, !tbaa !42
  call void @llvm.lifetime.start.p0(i64 8, ptr %7) #11
  %10 = load ptr, ptr %4, align 8, !tbaa !29
  store ptr %10, ptr %7, align 8, !tbaa !29
  call void @llvm.lifetime.start.p0(i64 1, ptr %8) #11
  %11 = load i8, ptr %5, align 1, !tbaa !63
  %12 = call zeroext i8 @mov_text_style_to_flag(i8 noundef signext %11)
  store i8 %12, ptr %8, align 1, !tbaa !63
  %13 = load ptr, ptr %7, align 8, !tbaa !29
  %14 = getelementptr inbounds nuw %struct.MovTextContext, ptr %13, i32 0, i32 7
  %15 = getelementptr inbounds nuw %struct.StyleBox, ptr %14, i32 0, i32 2
  %16 = load i8, ptr %15, align 4, !tbaa !105
  %17 = zext i8 %16 to i32
  %18 = load i8, ptr %8, align 1, !tbaa !63
  %19 = zext i8 %18 to i32
  %20 = and i32 %17, %19
  %21 = icmp ne i32 %20, 0
  %22 = xor i1 %21, true
  %23 = xor i1 %22, true
  %24 = zext i1 %23 to i32
  %25 = load i32, ptr %6, align 4, !tbaa !42
  %26 = icmp ne i32 %24, %25
  br i1 %26, label %27, label %28

27:                                               ; preds = %3
  store i32 1, ptr %9, align 4
  br label %58

28:                                               ; preds = %3
  %29 = load ptr, ptr %7, align 8, !tbaa !29
  %30 = call i32 @mov_text_style_start(ptr noundef %29)
  %31 = icmp ne i32 %30, 0
  br i1 %31, label %32, label %57

32:                                               ; preds = %28
  %33 = load i32, ptr %6, align 4, !tbaa !42
  %34 = icmp ne i32 %33, 0
  br i1 %34, label %45, label %35

35:                                               ; preds = %32
  %36 = load i8, ptr %8, align 1, !tbaa !63
  %37 = zext i8 %36 to i32
  %38 = load ptr, ptr %7, align 8, !tbaa !29
  %39 = getelementptr inbounds nuw %struct.MovTextContext, ptr %38, i32 0, i32 7
  %40 = getelementptr inbounds nuw %struct.StyleBox, ptr %39, i32 0, i32 2
  %41 = load i8, ptr %40, align 4, !tbaa !105
  %42 = zext i8 %41 to i32
  %43 = or i32 %42, %37
  %44 = trunc i32 %43 to i8
  store i8 %44, ptr %40, align 4, !tbaa !105
  br label %56

45:                                               ; preds = %32
  %46 = load i8, ptr %8, align 1, !tbaa !63
  %47 = zext i8 %46 to i32
  %48 = xor i32 %47, -1
  %49 = load ptr, ptr %7, align 8, !tbaa !29
  %50 = getelementptr inbounds nuw %struct.MovTextContext, ptr %49, i32 0, i32 7
  %51 = getelementptr inbounds nuw %struct.StyleBox, ptr %50, i32 0, i32 2
  %52 = load i8, ptr %51, align 4, !tbaa !105
  %53 = zext i8 %52 to i32
  %54 = and i32 %53, %48
  %55 = trunc i32 %54 to i8
  store i8 %55, ptr %51, align 4, !tbaa !105
  br label %56

56:                                               ; preds = %45, %35
  br label %57

57:                                               ; preds = %56, %28
  store i32 0, ptr %9, align 4
  br label %58

58:                                               ; preds = %57, %27
  call void @llvm.lifetime.end.p0(i64 1, ptr %8) #11
  call void @llvm.lifetime.end.p0(i64 8, ptr %7) #11
  %59 = load i32, ptr %9, align 4
  switch i32 %59, label %61 [
    i32 0, label %60
    i32 1, label %60
  ]

60:                                               ; preds = %58, %58
  ret void

61:                                               ; preds = %58
  unreachable
}