; Function Attrs: nounwind uwtable
define internal void @mov_text_style_cb(ptr noundef %0, i8 noundef signext %1, i32 noundef %2) #1 {
  switch i8 %1, label %mov_text_style_to_flag.exit [
    i8 98, label %4
    i8 105, label %5
    i8 117, label %6
  ]

4:                                                ; preds = %3
  br label %mov_text_style_to_flag.exit

5:                                                ; preds = %3
  br label %mov_text_style_to_flag.exit

6:                                                ; preds = %3
  br label %mov_text_style_to_flag.exit

mov_text_style_to_flag.exit:                      ; preds = %3, %4, %5, %6
  %.0.i = phi i8 [ 0, %3 ], [ 4, %6 ], [ 2, %5 ], [ 1, %4 ]
  %7 = getelementptr inbounds nuw i8, ptr %0, i64 52
  %8 = load i8, ptr %7, align 4, !tbaa !96
  %9 = and i8 %8, %.0.i
  %10 = icmp ne i8 %9, 0
  %11 = zext i1 %10 to i32
  %.not = icmp eq i32 %2, %11
  br i1 %.not, label %12, label %22

12:                                               ; preds = %mov_text_style_to_flag.exit
  %13 = tail call fastcc i32 @mov_text_style_start(ptr noundef nonnull %0)
  %.not10 = icmp eq i32 %13, 0
  br i1 %.not10, label %22, label %14

14:                                               ; preds = %12
  %.not11 = icmp eq i32 %2, 0
  br i1 %.not11, label %15, label %18

15:                                               ; preds = %14
  %16 = load i8, ptr %7, align 4, !tbaa !96
  %17 = or i8 %16, %.0.i
  br label %.sink.split

18:                                               ; preds = %14
  %19 = xor i8 %.0.i, -1
  %20 = load i8, ptr %7, align 4, !tbaa !96
  %21 = and i8 %20, %19
  br label %.sink.split

.sink.split:                                      ; preds = %15, %18
  %.sink = phi i8 [ %21, %18 ], [ %17, %15 ]
  store i8 %.sink, ptr %7, align 4, !tbaa !96
  br label %22

22:                                               ; preds = %.sink.split, %12, %mov_text_style_to_flag.exit
  ret void
}